target datalayout = "e-m:e-p270:32:32-p271:32:32-p272:64:64-i64:64-i128:128-f80:128-n8:16:32:64-S128"
target triple = "x86_64-pc-linux-gnu"

%struct.Py_buffer = type { ptr, ptr, i64, i64, i32, i32, ptr, ptr, ptr, ptr, ptr }

@.str.95 = private unnamed_addr constant [18 x i8] c"w*:getargs_w_star\00", align 1

; Function Attrs: nounwind uwtable
define internal ptr @getargs_w_star(ptr noundef %0, ptr noundef %1) #0 {
  %3 = alloca ptr, align 8
  %4 = alloca ptr, align 8
  %5 = alloca ptr, align 8
  %6 = alloca %struct.Py_buffer, align 8
  %7 = alloca i32, align 4
  %8 = alloca ptr, align 8
  %9 = alloca ptr, align 8
  store ptr %0, ptr %4, align 8, !tbaa !3
  store ptr %1, ptr %5, align 8, !tbaa !3
  call void @llvm.lifetime.start.p0(i64 80, ptr %6) #9
  %10 = load ptr, ptr %5, align 8, !tbaa !3
  %11 = call i32 (ptr, ptr, ...) @PyArg_ParseTuple(ptr noundef %10, ptr noundef @.str.95, ptr noundef %6)
  %12 = icmp ne i32 %11, 0
  br i1 %12, label %14, label %13

13:                                               ; preds = %2
  store ptr null, ptr %3, align 8
  store i32 1, ptr %7, align 4
  br label %35

14:                                               ; preds = %2
  %15 = getelementptr inbounds nuw %struct.Py_buffer, ptr %6, i32 0, i32 2
  %16 = load i64, ptr %15, align 8, !tbaa !27
  %17 = icmp sle i64 2, %16
  br i1 %17, label %18, label %28

18:                                               ; preds = %14
  call void @llvm.lifetime.start.p0(i64 8, ptr %8) #9
  %19 = getelementptr inbounds nuw %struct.Py_buffer, ptr %6, i32 0, i32 0
  %20 = load ptr, ptr %19, align 8, !tbaa !24
  store ptr %20, ptr %8, align 8, !tbaa !17
  %21 = load ptr, ptr %8, align 8, !tbaa !17
  %22 = getelementptr i8, ptr %21, i64 0
  store i8 91, ptr %22, align 1, !tbaa !8
  %23 = load ptr, ptr %8, align 8, !tbaa !17
  %24 = getelementptr inbounds nuw %struct.Py_buffer, ptr %6, i32 0, i32 2
  %25 = load i64, ptr %24, align 8, !tbaa !27
  %26 = sub i64 %25, 1
  %27 = getelementptr i8, ptr %23, i64 %26
  store i8 93, ptr %27, align 1, !tbaa !8
  call void @llvm.lifetime.end.p0(i64 8, ptr %8) #9
  br label %28

28:                                               ; preds = %18, %14
  call void @llvm.lifetime.start.p0(i64 8, ptr %9) #9
  %29 = getelementptr inbounds nuw %struct.Py_buffer, ptr %6, i32 0, i32 0
  %30 = load ptr, ptr %29, align 8, !tbaa !24
  %31 = getelementptr inbounds nuw %struct.Py_buffer, ptr %6, i32 0, i32 2
  %32 = load i64, ptr %31, align 8, !tbaa !27
  %33 = call ptr @PyBytes_FromStringAndSize(ptr noundef %30, i64 noundef %32)
  store ptr %33, ptr %9, align 8, !tbaa !3
  call void @PyBuffer_Release(ptr noundef %6)
  %34 = load ptr, ptr %9, align 8, !tbaa !3
  store ptr %34, ptr %3, align 8
  store i32 1, ptr %7, align 4
  call void @llvm.lifetime.end.p0(i64 8, ptr %9) #9
  br label %35

35:                                               ; preds = %28, %13
  call void @llvm.lifetime.end.p0(i64 80, ptr %6) #9
  %36 = load ptr, ptr %3, align 8
  ret ptr %36
}