; Function Attrs: nounwind uwtable
define internal ptr @getargs_w_star(ptr readnone captures(none) %0, ptr noundef %1) #0 {
  %3 = alloca %struct.Py_buffer, align 8
  call void @llvm.lifetime.start.p0(i64 80, ptr nonnull %3) #7
  %4 = call i32 (ptr, ptr, ...) @PyArg_ParseTuple(ptr noundef %1, ptr noundef nonnull @.str.95, ptr noundef nonnull %3) #7
  %.not = icmp eq i32 %4, 0
  br i1 %.not, label %18, label %5

5:                                                ; preds = %2
  %6 = getelementptr inbounds nuw i8, ptr %3, i64 16
  %7 = load i64, ptr %6, align 8, !tbaa !34
  %8 = icmp sgt i64 %7, 1
  br i1 %8, label %9, label %14

9:                                                ; preds = %5
  %10 = load ptr, ptr %3, align 8, !tbaa !31
  store i8 91, ptr %10, align 1, !tbaa !3
  %11 = load i64, ptr %6, align 8, !tbaa !34
  %12 = getelementptr i8, ptr %10, i64 %11
  %13 = getelementptr i8, ptr %12, i64 -1
  store i8 93, ptr %13, align 1, !tbaa !3
  %.pre = load i64, ptr %6, align 8, !tbaa !34
  br label %14

14:                                               ; preds = %9, %5
  %15 = phi i64 [ %.pre, %9 ], [ %7, %5 ]
  %16 = load ptr, ptr %3, align 8, !tbaa !31
  %17 = call ptr @PyBytes_FromStringAndSize(ptr noundef %16, i64 noundef %15) #7
  call void @PyBuffer_Release(ptr noundef nonnull %3) #7
  br label %18

18:                                               ; preds = %2, %14
  %.0 = phi ptr [ %17, %14 ], [ null, %2 ]
  call void @llvm.lifetime.end.p0(i64 80, ptr nonnull %3) #7
  ret ptr %.0
}